; Function Attrs: mustprogress uwtable
define void @_ZNK5Yosys3AST7AstNode9cloneIntoEPS1_(ptr noundef nonnull align 8 dereferenceable(284) %0, ptr noundef %1) local_unnamed_addr #4 align 2 personality ptr @__gxx_personality_v0 {
  %3 = tail call noundef ptr @_ZNK5Yosys3AST7AstNode5cloneEv(ptr noundef nonnull align 8 dereferenceable(284) %0)
  %4 = getelementptr inbounds i8, ptr %1, i64 282
  %5 = load i8, ptr %4, align 2
  %6 = and i8 %5, 1
  %7 = getelementptr inbounds i8, ptr %3, i64 282
  store i8 %6, ptr %7, align 2
  %8 = getelementptr inbounds i8, ptr %1, i64 283
  %9 = load i8, ptr %8, align 1
  %10 = and i8 %9, 1
  %11 = getelementptr inbounds i8, ptr %3, i64 283
  store i8 %10, ptr %11, align 1
  tail call void @_ZN5Yosys3AST7AstNode15delete_childrenEv(ptr noundef nonnull align 8 dereferenceable(284) %1)
  %12 = load i64, ptr %3, align 8
  store i64 %12, ptr %1, align 8
  %13 = getelementptr inbounds i8, ptr %1, i64 8
  %14 = getelementptr inbounds i8, ptr %3, i64 8
  %15 = tail call noundef nonnull align 8 dereferenceable(24) ptr @_ZNSt6vectorIPN5Yosys3AST7AstNodeESaIS3_EEaSERKS5_(ptr noundef nonnull align 8 dereferenceable(24) %13, ptr noundef nonnull align 8 dereferenceable(24) %14)
  %16 = getelementptr inbounds i8, ptr %1, i64 32
  %17 = getelementptr inbounds i8, ptr %3, i64 32
  %18 = tail call noundef nonnull align 8 dereferenceable(48) ptr @_ZNSt8_Rb_treeIN5Yosys5RTLIL8IdStringESt4pairIKS2_PNS0_3AST7AstNodeEESt10_Select1stIS8_ESt4lessIS2_ESaIS8_EEaSERKSE_(ptr noundef nonnull align 8 dereferenceable(48) %16, ptr noundef nonnull align 8 dereferenceable(48) %17)
  %19 = getelementptr inbounds i8, ptr %1, i64 80
  %20 = getelementptr inbounds i8, ptr %3, i64 80
  %21 = tail call noundef nonnull align 8 dereferenceable(32) ptr @_ZNSt7__cxx1112basic_stringIcSt11char_traitsIcESaIcEEaSERKS4_(ptr noundef nonnull align 8 dereferenceable(32) %19, ptr noundef nonnull align 8 dereferenceable(32) %20)
  %22 = getelementptr inbounds i8, ptr %1, i64 112
  %23 = getelementptr inbounds i8, ptr %3, i64 112
  %24 = tail call noundef nonnull align 8 dereferenceable(24) ptr @_ZNSt6vectorIN5Yosys5RTLIL5StateESaIS2_EEaSERKS4_(ptr noundef nonnull align 8 dereferenceable(24) %22, ptr noundef nonnull align 8 dereferenceable(24) %23)
  %25 = getelementptr inbounds i8, ptr %1, i64 136
  %26 = getelementptr inbounds i8, ptr %3, i64 136
  tail call void @llvm.memcpy.p0.p0.i64(ptr noundef nonnull align 8 dereferenceable(41) %25, ptr noundef nonnull align 8 dereferenceable(41) %26, i64 41, i1 false)
  %27 = getelementptr inbounds i8, ptr %1, i64 184
  %28 = getelementptr inbounds i8, ptr %3, i64 184
  %29 = tail call noundef nonnull align 8 dereferenceable(24) ptr @_ZNSt6vectorIN5Yosys3AST7AstNode11dimension_tESaIS3_EEaSERKS5_(ptr noundef nonnull align 8 dereferenceable(24) %27, ptr noundef nonnull align 8 dereferenceable(24) %28)
  %30 = getelementptr inbounds i8, ptr %1, i64 208
  %31 = getelementptr inbounds i8, ptr %3, i64 208
  tail call void @llvm.memcpy.p0.p0.i64(ptr noundef nonnull align 8 dereferenceable(18) %30, ptr noundef nonnull align 8 dereferenceable(18) %31, i64 18, i1 false)
  %32 = getelementptr inbounds i8, ptr %1, i64 232
  %33 = getelementptr inbounds i8, ptr %3, i64 232
  %34 = tail call noundef nonnull align 8 dereferenceable(32) ptr @_ZNSt7__cxx1112basic_stringIcSt11char_traitsIcESaIcEEaSERKS4_(ptr noundef nonnull align 8 dereferenceable(32) %32, ptr noundef nonnull align 8 dereferenceable(32) %33)
  %35 = getelementptr inbounds i8, ptr %1, i64 264
  %36 = getelementptr inbounds i8, ptr %3, i64 264
  tail call void @llvm.memcpy.p0.p0.i64(ptr noundef nonnull align 8 dereferenceable(20) %35, ptr noundef nonnull align 8 dereferenceable(20) %36, i64 20, i1 false)
  %37 = load ptr, ptr %14, align 8
  %38 = getelementptr inbounds i8, ptr %3, i64 16
  %39 = load ptr, ptr %38, align 8
  %.not.i.i = icmp eq ptr %39, %37
  br i1 %.not.i.i, label %_ZNSt6vectorIPN5Yosys3AST7AstNodeESaIS3_EE5clearEv.exit, label %40

40:                                               ; preds = %2
  store ptr %37, ptr %38, align 8
  br label %_ZNSt6vectorIPN5Yosys3AST7AstNodeESaIS3_EE5clearEv.exit

_ZNSt6vectorIPN5Yosys3AST7AstNodeESaIS3_EE5clearEv.exit: ; preds = %2, %40
  %41 = getelementptr inbounds i8, ptr %3, i64 48
  %42 = load ptr, ptr %41, align 8
  invoke void @_ZNSt8_Rb_treeIN5Yosys5RTLIL8IdStringESt4pairIKS2_PNS0_3AST7AstNodeEESt10_Select1stIS8_ESt4lessIS2_ESaIS8_EE8_M_eraseEPSt13_Rb_tree_nodeIS8_E(ptr noundef nonnull align 8 dereferenceable(48) %17, ptr noundef %42)
          to label %_ZNSt3mapIN5Yosys5RTLIL8IdStringEPNS0_3AST7AstNodeESt4lessIS2_ESaISt4pairIKS2_S5_EEE5clearEv.exit unwind label %43

43:                                               ; preds = %_ZNSt6vectorIPN5Yosys3AST7AstNodeESaIS3_EE5clearEv.exit
  %44 = landingpad { ptr, i32 }
          catch ptr null
  %45 = extractvalue { ptr, i32 } %44, 0
  tail call void @__clang_call_terminate(ptr %45) #32
  unreachable

_ZNSt3mapIN5Yosys5RTLIL8IdStringEPNS0_3AST7AstNodeESt4lessIS2_ESaISt4pairIKS2_S5_EEE5clearEv.exit: ; preds = %_ZNSt6vectorIPN5Yosys3AST7AstNodeESaIS3_EE5clearEv.exit
  %46 = getelementptr inbounds i8, ptr %3, i64 40
  store ptr null, ptr %41, align 8
  %47 = getelementptr inbounds i8, ptr %3, i64 56
  store ptr %46, ptr %47, align 8
  %48 = getelementptr inbounds i8, ptr %3, i64 64
  store ptr %46, ptr %48, align 8
  %49 = getelementptr inbounds i8, ptr %3, i64 72
  store i64 0, ptr %49, align 8
  tail call void @_ZN5Yosys3AST7AstNode21fixup_hierarchy_flagsEb(ptr noundef nonnull align 8 dereferenceable(284) %1, i1 noundef zeroext false)
  tail call void @_ZN5Yosys3AST7AstNodeD1Ev(ptr noundef nonnull align 8 dereferenceable(284) %3) #34
  tail call void @_ZdlPv(ptr noundef nonnull %3) #33
  ret void
}